target datalayout = "e-m:e-p270:32:32-p271:32:32-p272:64:64-i64:64-i128:128-f80:128-n8:16:32:64-S128"
target triple = "x86_64-pc-linux-gnu"

; Function Attrs: nounwind uwtable
define i64 @countCombination(i64 noundef %0, i64 noundef %1) #0 {
  %3 = alloca i64, align 8
  %4 = alloca i64, align 8
  %5 = alloca i64, align 8
  store i64 %0, ptr %4, align 8, !tbaa !3
  store i64 %1, ptr %5, align 8, !tbaa !3
  %6 = load i64, ptr %4, align 8, !tbaa !3
  %7 = load i64, ptr %5, align 8, !tbaa !3
  %8 = icmp eq i64 %6, %7
  br i1 %8, label %9, label %10

9:                                                ; preds = %2
  store i64 1, ptr %3, align 8
  br label %26

10:                                               ; preds = %2
  %11 = load i64, ptr %5, align 8, !tbaa !3
  %12 = icmp eq i64 %11, 1
  br i1 %12, label %13, label %15

13:                                               ; preds = %10
  %14 = load i64, ptr %4, align 8, !tbaa !3
  store i64 %14, ptr %3, align 8
  br label %26

15:                                               ; preds = %10
  %16 = load i64, ptr %4, align 8, !tbaa !3
  %17 = sub nsw i64 %16, 1
  %18 = load i64, ptr %5, align 8, !tbaa !3
  %19 = sub nsw i64 %18, 1
  %20 = call i64 @countCombination(i64 noundef %17, i64 noundef %19)
  %21 = load i64, ptr %4, align 8, !tbaa !3
  %22 = sub nsw i64 %21, 1
  %23 = load i64, ptr %5, align 8, !tbaa !3
  %24 = call i64 @countCombination(i64 noundef %22, i64 noundef %23)
  %25 = add nsw i64 %20, %24
  store i64 %25, ptr %3, align 8
  br label %26

26:                                               ; preds = %15, %13, %9
  %27 = load i64, ptr %3, align 8
  ret i64 %27
}