; Function Attrs: nofree nosync nounwind memory(none) uwtable
define i64 @countCombination(i64 noundef %0, i64 noundef %1) local_unnamed_addr #0 {
  %3 = icmp eq i64 %0, %1
  br i1 %3, label %._crit_edge, label %.lr.ph

.lr.ph:                                           ; preds = %2
  %4 = icmp eq i64 %1, 1
  %5 = add nsw i64 %1, -1
  br i1 %4, label %._crit_edge, label %tailrecurse

tailrecurse:                                      ; preds = %.lr.ph, %tailrecurse
  %.tr13 = phi i64 [ %6, %tailrecurse ], [ %0, %.lr.ph ]
  %accumulator.tr12 = phi i64 [ %8, %tailrecurse ], [ 0, %.lr.ph ]
  %6 = add nsw i64 %.tr13, -1
  %7 = tail call i64 @countCombination(i64 noundef %6, i64 noundef %5)
  %8 = add nsw i64 %7, %accumulator.tr12
  %9 = icmp eq i64 %6, %1
  br i1 %9, label %._crit_edge, label %tailrecurse

._crit_edge:                                      ; preds = %tailrecurse, %.lr.ph, %2
  %accumulator.tr.lcssa = phi i64 [ 0, %2 ], [ 0, %.lr.ph ], [ %8, %tailrecurse ]
  %.0 = phi i64 [ 1, %2 ], [ %0, %.lr.ph ], [ 1, %tailrecurse ]
  %accumulator.ret.tr = add nsw i64 %.0, %accumulator.tr.lcssa
  ret i64 %accumulator.ret.tr
}